; Function Attrs: nounwind uwtable
define range(i32 -1, 1) i32 @H5Orefresh_async(ptr noundef %0, ptr noundef %1, i32 noundef %2, i64 noundef %3, i64 noundef %4) local_unnamed_addr #0 {
  %6 = alloca ptr, align 8
  %7 = alloca ptr, align 8
  store ptr null, ptr %6, align 8
  store ptr null, ptr %7, align 8
  %8 = load i8, ptr @H5_libinit_g, align 1
  %9 = trunc i8 %8 to i1
  %10 = load i8, ptr @H5_libterm_g, align 1
  %11 = trunc i8 %10 to i1
  %12 = select i1 %9, i1 true, i1 %11
  br i1 %12, label %20, label %13

13:                                               ; preds = %5
  %14 = tail call i32 @H5_init_library() #4
  %15 = icmp slt i32 %14, 0
  br i1 %15, label %16, label %20

16:                                               ; preds = %13
  %17 = load i64, ptr @H5E_FUNC_g, align 8
  %18 = load i64, ptr @H5E_CANTINIT_g, align 8
  %19 = tail call i32 (ptr, ptr, i32, i64, i64, ptr, ...) @H5E_printf_stack(ptr noundef nonnull @.str, ptr noundef nonnull @__func__.H5Orefresh_async, i32 noundef 765, i64 noundef %17, i64 noundef %18, ptr noundef nonnull @.str.1) #4
  br label %.thread28

20:                                               ; preds = %13, %5
  %21 = tail call i32 @H5CX_push() #4
  %22 = icmp slt i32 %21, 0
  br i1 %22, label %23, label %27

23:                                               ; preds = %20
  %24 = load i64, ptr @H5E_FUNC_g, align 8
  %25 = load i64, ptr @H5E_CANTSET_g, align 8
  %26 = tail call i32 (ptr, ptr, i32, i64, i64, ptr, ...) @H5E_printf_stack(ptr noundef nonnull @.str, ptr noundef nonnull @__func__.H5Orefresh_async, i32 noundef 765, i64 noundef %24, i64 noundef %25, ptr noundef nonnull @.str.2) #4
  br label %.thread28

27:                                               ; preds = %20
  %28 = tail call i32 @H5E_clear_stack() #4
  %.not = icmp eq i64 %4, 0
  %spec.select = select i1 %.not, ptr null, ptr %7
  %29 = call fastcc i32 @H5O__refresh_api_common(i64 noundef %3, ptr noundef %spec.select, ptr noundef nonnull %6)
  %30 = icmp slt i32 %29, 0
  br i1 %30, label %31, label %35

31:                                               ; preds = %27
  %32 = load i64, ptr @H5E_OHDR_g, align 8
  %33 = load i64, ptr @H5E_CANTLOAD_g, align 8
  %34 = call i32 (ptr, ptr, i32, i64, i64, ptr, ...) @H5E_printf_stack(ptr noundef nonnull @.str, ptr noundef nonnull @__func__.H5Orefresh_async, i32 noundef 773, i64 noundef %32, i64 noundef %33, ptr noundef nonnull @.str.38) #4
  br label %.thread34

35:                                               ; preds = %27
  %36 = load ptr, ptr %7, align 8
  %.not19 = icmp eq ptr %36, null
  br i1 %.not19, label %48, label %37

37:                                               ; preds = %35
  %38 = load ptr, ptr %6, align 8
  %39 = getelementptr inbounds i8, ptr %38, i64 8
  %40 = load ptr, ptr %39, align 8
  %41 = call i32 (i64, ptr, ptr, ptr, ptr, ...) @H5ES_insert(i64 noundef %4, ptr noundef %40, ptr noundef nonnull %36, ptr noundef nonnull @__func__.H5Orefresh_async, ptr noundef nonnull @.str.35, ptr noundef nonnull @.str.6, ptr noundef %0, ptr noundef nonnull @.str.7, ptr noundef %1, ptr noundef nonnull @.str.8, i32 noundef %2, ptr noundef nonnull @.str.39, i64 noundef %3, ptr noundef nonnull @.str.12, i64 noundef %4) #4
  %42 = icmp slt i32 %41, 0
  br i1 %42, label %43, label %48

43:                                               ; preds = %37
  %44 = load i64, ptr @H5E_OHDR_g, align 8
  %45 = load i64, ptr @H5E_CANTINSERT_g, align 8
  %46 = call i32 (ptr, ptr, i32, i64, i64, ptr, ...) @H5E_printf_stack(ptr noundef nonnull @.str, ptr noundef nonnull @__func__.H5Orefresh_async, i32 noundef 781, i64 noundef %44, i64 noundef %45, ptr noundef nonnull @.str.14) #4
  br label %.thread34

.thread34:                                        ; preds = %43, %31
  %47 = call i32 @H5CX_pop(i1 noundef zeroext true) #4
  br label %.thread28

48:                                               ; preds = %35, %37
  %49 = call i32 @H5CX_pop(i1 noundef zeroext true) #4
  br label %51

.thread28:                                        ; preds = %23, %16, %.thread34
  %50 = call i32 @H5E_dump_api_stack() #4
  br label %51

51:                                               ; preds = %48, %.thread28
  %.0162331 = phi i32 [ -1, %.thread28 ], [ 0, %48 ]
  ret i32 %.0162331
}